target datalayout = "e-m:e-p270:32:32-p271:32:32-p272:64:64-i64:64-i128:128-f80:128-n8:16:32:64-S128"
target triple = "x86_64-pc-linux-gnu"

%struct.prov_aes_ctx_st = type { %struct.prov_cipher_ctx_st, %union.anon.0, %union.anon.1 }
%struct.prov_cipher_ctx_st = type { [16 x i8], [16 x i8], [16 x i8], ptr, %union.anon, i32, i64, i64, i64, i64, i32, i8, i32, ptr, i32, i64, i32, i64, i32, ptr, ptr, ptr }
%union.anon = type { ptr }
%union.anon.0 = type { double, [240 x i8] }
%union.anon.1 = type { i32 }

@.str = private unnamed_addr constant [69 x i8] c"../openssl/providers/implementations/ciphers/cipher_aes_hw_aesni.inc\00", align 1
@__func__.cipher_hw_aesni_initkey = private unnamed_addr constant [24 x i8] c"cipher_hw_aesni_initkey\00", align 1

; Function Attrs: nounwind uwtable
define internal i32 @cipher_hw_aesni_initkey(ptr noundef %0, ptr noundef %1, i64 noundef %2) #0 {
  %4 = alloca i32, align 4
  %5 = alloca ptr, align 8
  %6 = alloca ptr, align 8
  %7 = alloca i64, align 8
  %8 = alloca i32, align 4
  %9 = alloca ptr, align 8
  %10 = alloca ptr, align 8
  %11 = alloca i32, align 4
  store ptr %0, ptr %5, align 8, !tbaa !9
  store ptr %1, ptr %6, align 8, !tbaa !12
  store i64 %2, ptr %7, align 8, !tbaa !3
  call void @llvm.lifetime.start.p0(i64 4, ptr %8) #4
  call void @llvm.lifetime.start.p0(i64 8, ptr %9) #4
  %12 = load ptr, ptr %5, align 8, !tbaa !9
  store ptr %12, ptr %9, align 8, !tbaa !14
  call void @llvm.lifetime.start.p0(i64 8, ptr %10) #4
  %13 = load ptr, ptr %9, align 8, !tbaa !14
  %14 = getelementptr inbounds nuw %struct.prov_aes_ctx_st, ptr %13, i32 0, i32 1
  store ptr %14, ptr %10, align 8, !tbaa !16
  %15 = load ptr, ptr %10, align 8, !tbaa !16
  %16 = load ptr, ptr %5, align 8, !tbaa !9
  %17 = getelementptr inbounds nuw %struct.prov_cipher_ctx_st, ptr %16, i32 0, i32 20
  store ptr %15, ptr %17, align 8, !tbaa !18
  %18 = load ptr, ptr %5, align 8, !tbaa !9
  %19 = getelementptr inbounds nuw %struct.prov_cipher_ctx_st, ptr %18, i32 0, i32 5
  %20 = load i32, ptr %19, align 8, !tbaa !22
  %21 = icmp eq i32 %20, 1
  br i1 %21, label %27, label %22

22:                                               ; preds = %3
  %23 = load ptr, ptr %5, align 8, !tbaa !9
  %24 = getelementptr inbounds nuw %struct.prov_cipher_ctx_st, ptr %23, i32 0, i32 5
  %25 = load i32, ptr %24, align 8, !tbaa !22
  %26 = icmp eq i32 %25, 2
  br i1 %26, label %27, label %51

27:                                               ; preds = %22, %3
  %28 = load ptr, ptr %5, align 8, !tbaa !9
  %29 = getelementptr inbounds nuw %struct.prov_cipher_ctx_st, ptr %28, i32 0, i32 11
  %30 = load i8, ptr %29, align 4
  %31 = lshr i8 %30, 1
  %32 = and i8 %31, 1
  %33 = zext i8 %32 to i32
  %34 = icmp ne i32 %33, 0
  br i1 %34, label %51, label %35

35:                                               ; preds = %27
  %36 = load ptr, ptr %6, align 8, !tbaa !12
  %37 = load i64, ptr %7, align 8, !tbaa !3
  %38 = mul i64 %37, 8
  %39 = trunc i64 %38 to i32
  %40 = load ptr, ptr %10, align 8, !tbaa !16
  %41 = call i32 @aesni_set_decrypt_key(ptr noundef %36, i32 noundef %39, ptr noundef %40)
  store i32 %41, ptr %8, align 4, !tbaa !7
  %42 = load ptr, ptr %5, align 8, !tbaa !9
  %43 = getelementptr inbounds nuw %struct.prov_cipher_ctx_st, ptr %42, i32 0, i32 3
  store ptr @aesni_decrypt, ptr %43, align 8, !tbaa !23
  %44 = load ptr, ptr %5, align 8, !tbaa !9
  %45 = getelementptr inbounds nuw %struct.prov_cipher_ctx_st, ptr %44, i32 0, i32 5
  %46 = load i32, ptr %45, align 8, !tbaa !22
  %47 = icmp eq i32 %46, 2
  %48 = select i1 %47, ptr @aesni_cbc_encrypt, ptr null
  %49 = load ptr, ptr %5, align 8, !tbaa !9
  %50 = getelementptr inbounds nuw %struct.prov_cipher_ctx_st, ptr %49, i32 0, i32 4
  store ptr %48, ptr %50, align 8, !tbaa !24
  br label %80

51:                                               ; preds = %27, %22
  %52 = load ptr, ptr %6, align 8, !tbaa !12
  %53 = load i64, ptr %7, align 8, !tbaa !3
  %54 = mul i64 %53, 8
  %55 = trunc i64 %54 to i32
  %56 = load ptr, ptr %10, align 8, !tbaa !16
  %57 = call i32 @aesni_set_encrypt_key(ptr noundef %52, i32 noundef %55, ptr noundef %56)
  store i32 %57, ptr %8, align 4, !tbaa !7
  %58 = load ptr, ptr %5, align 8, !tbaa !9
  %59 = getelementptr inbounds nuw %struct.prov_cipher_ctx_st, ptr %58, i32 0, i32 3
  store ptr @aesni_encrypt, ptr %59, align 8, !tbaa !23
  %60 = load ptr, ptr %5, align 8, !tbaa !9
  %61 = getelementptr inbounds nuw %struct.prov_cipher_ctx_st, ptr %60, i32 0, i32 5
  %62 = load i32, ptr %61, align 8, !tbaa !22
  %63 = icmp eq i32 %62, 2
  br i1 %63, label %64, label %67

64:                                               ; preds = %51
  %65 = load ptr, ptr %5, align 8, !tbaa !9
  %66 = getelementptr inbounds nuw %struct.prov_cipher_ctx_st, ptr %65, i32 0, i32 4
  store ptr @aesni_cbc_encrypt, ptr %66, align 8, !tbaa !24
  br label %79

67:                                               ; preds = %51
  %68 = load ptr, ptr %5, align 8, !tbaa !9
  %69 = getelementptr inbounds nuw %struct.prov_cipher_ctx_st, ptr %68, i32 0, i32 5
  %70 = load i32, ptr %69, align 8, !tbaa !22
  %71 = icmp eq i32 %70, 5
  br i1 %71, label %72, label %75

72:                                               ; preds = %67
  %73 = load ptr, ptr %5, align 8, !tbaa !9
  %74 = getelementptr inbounds nuw %struct.prov_cipher_ctx_st, ptr %73, i32 0, i32 4
  store ptr @aesni_ctr32_encrypt_blocks, ptr %74, align 8, !tbaa !24
  br label %78

75:                                               ; preds = %67
  %76 = load ptr, ptr %5, align 8, !tbaa !9
  %77 = getelementptr inbounds nuw %struct.prov_cipher_ctx_st, ptr %76, i32 0, i32 4
  store ptr null, ptr %77, align 8, !tbaa !24
  br label %78

78:                                               ; preds = %75, %72
  br label %79

79:                                               ; preds = %78, %64
  br label %80

80:                                               ; preds = %79, %35
  %81 = load i32, ptr %8, align 4, !tbaa !7
  %82 = icmp slt i32 %81, 0
  br i1 %82, label %83, label %84

83:                                               ; preds = %80
  call void @ERR_new()
  call void @ERR_set_debug(ptr noundef @.str, i32 noundef 48, ptr noundef @__func__.cipher_hw_aesni_initkey)
  call void (i32, i32, ptr, ...) @ERR_set_error(i32 noundef 57, i32 noundef 101, ptr noundef null)
  store i32 0, ptr %4, align 4
  store i32 1, ptr %11, align 4
  br label %85

84:                                               ; preds = %80
  store i32 1, ptr %4, align 4
  store i32 1, ptr %11, align 4
  br label %85

85:                                               ; preds = %84, %83
  call void @llvm.lifetime.end.p0(i64 8, ptr %10) #4
  call void @llvm.lifetime.end.p0(i64 8, ptr %9) #4
  call void @llvm.lifetime.end.p0(i64 4, ptr %8) #4
  %86 = load i32, ptr %4, align 4
  ret i32 %86
}