; Function Attrs: nounwind uwtable
define internal range(i32 0, 2) i32 @cipher_hw_aesni_initkey(ptr noundef %0, ptr noundef %1, i64 noundef %2) #1 {
  %4 = getelementptr inbounds nuw i8, ptr %0, i64 192
  %5 = getelementptr inbounds nuw i8, ptr %0, i64 176
  store ptr %4, ptr %5, align 8, !tbaa !7
  %6 = getelementptr inbounds nuw i8, ptr %0, i64 64
  %7 = load i32, ptr %6, align 8, !tbaa !14
  %.off = add i32 %7, -1
  %switch = icmp ult i32 %.off, 2
  br i1 %switch, label %8, label %20

8:                                                ; preds = %3
  %9 = getelementptr inbounds nuw i8, ptr %0, i64 108
  %10 = load i8, ptr %9, align 4
  %11 = and i8 %10, 2
  %.not = icmp eq i8 %11, 0
  br i1 %.not, label %12, label %20

12:                                               ; preds = %8
  %.tr = trunc i64 %2 to i32
  %13 = shl i32 %.tr, 3
  %14 = tail call i32 @aesni_set_decrypt_key(ptr noundef %1, i32 noundef %13, ptr noundef nonnull %4) #5
  %15 = getelementptr inbounds nuw i8, ptr %0, i64 48
  store ptr @aesni_decrypt, ptr %15, align 8, !tbaa !15
  %16 = load i32, ptr %6, align 8, !tbaa !14
  %17 = icmp eq i32 %16, 2
  %18 = select i1 %17, ptr @aesni_cbc_encrypt, ptr null
  %19 = getelementptr inbounds nuw i8, ptr %0, i64 56
  store ptr %18, ptr %19, align 8, !tbaa !16
  br label %29

20:                                               ; preds = %3, %8
  %.tr26 = trunc i64 %2 to i32
  %21 = shl i32 %.tr26, 3
  %22 = tail call i32 @aesni_set_encrypt_key(ptr noundef %1, i32 noundef %21, ptr noundef nonnull %4) #5
  %23 = getelementptr inbounds nuw i8, ptr %0, i64 48
  store ptr @aesni_encrypt, ptr %23, align 8, !tbaa !15
  %24 = load i32, ptr %6, align 8, !tbaa !14
  %25 = getelementptr inbounds nuw i8, ptr %0, i64 56
  switch i32 %24, label %28 [
    i32 2, label %26
    i32 5, label %27
  ]

26:                                               ; preds = %20
  store ptr @aesni_cbc_encrypt, ptr %25, align 8, !tbaa !16
  br label %29

27:                                               ; preds = %20
  store ptr @aesni_ctr32_encrypt_blocks, ptr %25, align 8, !tbaa !16
  br label %29

28:                                               ; preds = %20
  store ptr null, ptr %25, align 8, !tbaa !16
  br label %29

29:                                               ; preds = %26, %28, %27, %12
  %.023 = phi i32 [ %22, %26 ], [ %22, %27 ], [ %22, %28 ], [ %14, %12 ]
  %30 = icmp slt i32 %.023, 0
  br i1 %30, label %31, label %32

31:                                               ; preds = %29
  tail call void @ERR_new() #5
  tail call void @ERR_set_debug(ptr noundef nonnull @.str, i32 noundef 48, ptr noundef nonnull @__func__.cipher_hw_aesni_initkey) #5
  tail call void (i32, i32, ptr, ...) @ERR_set_error(i32 noundef 57, i32 noundef 101, ptr noundef null) #5
  br label %32

32:                                               ; preds = %29, %31
  %.0 = phi i32 [ 0, %31 ], [ 1, %29 ]
  ret i32 %.0
}